; Function Attrs: mustprogress nofree norecurse nosync nounwind willreturn memory(argmem: readwrite) uwtable
define internal noundef zeroext i1 @_ZNSt17_Function_handlerIFN8QuantLib5ArrayERKS1_EZNS0_20LaplaceInterpolationC1ESt8functionIFdRKSt6vectorImSaImEEEES7_IS7_IdSaIdEESaISF_EEdmE3f_AE10_M_managerERSt9_Any_dataRKSK_St18_Manager_operation(ptr nocapture noundef nonnull writeonly align 8 dereferenceable(16) %__dest, ptr noundef nonnull align 8 dereferenceable(16) %__source, i32 noundef %__op) #18 align 2 personality ptr @__gxx_personality_v0 {
entry:
  switch i32 %__op, label %sw.epilog [
    i32 0, label %sw.bb
    i32 1, label %sw.bb1
    i32 2, label %sw.bb4.i
  ]

sw.bb:                                            ; preds = %entry
  store ptr @_ZTIZN8QuantLib20LaplaceInterpolationC1ESt8functionIFdRKSt6vectorImSaImEEEES2_IS2_IdSaIdEESaISA_EEdmE3f_A, ptr %__dest, align 8, !tbaa !43
  br label %sw.epilog

sw.bb1:                                           ; preds = %entry
  store ptr %__source, ptr %__dest, align 8, !tbaa !43
  br label %sw.epilog

sw.bb4.i:                                         ; preds = %entry
  %call5.val.i = load i64, ptr %__source, align 8, !tbaa !43
  store i64 %call5.val.i, ptr %__dest, align 8, !tbaa !43
  br label %sw.epilog

sw.epilog:                                        ; preds = %entry, %sw.bb4.i, %sw.bb1, %sw.bb
  ret i1 false
}